target datalayout = "e-m:e-p270:32:32-p271:32:32-p272:64:64-i64:64-i128:128-f80:128-n8:16:32:64-S128"
target triple = "x86_64-pc-linux-gnu"

%"struct.cv::softdouble" = type { i64 }

; Function Attrs: mustprogress nounwind uwtable
define linkonce_odr hidden void @_ZN2cv10softdoubleC2Ev(ptr noundef nonnull align 8 dereferenceable(8) %0) unnamed_addr #1 comdat align 2 {
  %2 = alloca ptr, align 8
  store ptr %0, ptr %2, align 8
  %3 = load ptr, ptr %2, align 8
  %4 = getelementptr inbounds %"struct.cv::softdouble", ptr %3, i32 0, i32 0
  store i64 0, ptr %4, align 8
  ret void
}

; Function Attrs: mustprogress uwtable
define linkonce_odr hidden void @_ZN2cv10softdouble7fromRawEm(ptr dead_on_unwind noalias writable sret(%"struct.cv::softdouble") align 8 %0, i64 noundef %1) #0 comdat align 2 {
  %3 = alloca ptr, align 8
  %4 = alloca i64, align 8
  store ptr %0, ptr %3, align 8
  store i64 %1, ptr %4, align 8
  call void @_ZN2cv10softdoubleC2Ev(ptr noundef nonnull align 8 dereferenceable(8) %0)
  %5 = load i64, ptr %4, align 8
  %6 = getelementptr inbounds %"struct.cv::softdouble", ptr %0, i32 0, i32 0
  store i64 %5, ptr %6, align 8
  ret void
}

; Function Attrs: mustprogress nounwind uwtable
define internal noundef zeroext i8 @_ZN2cvL29softfloat_countLeadingZeros32Ej(i32 noundef %0) #1 {
  %2 = alloca i32, align 4
  %3 = alloca i8, align 1
  store i32 %0, ptr %2, align 4
  store i8 0, ptr %3, align 1
  %4 = load i32, ptr %2, align 4
  %5 = icmp ult i32 %4, 65536
  br i1 %5, label %6, label %9

6:                                                ; preds = %1
  store i8 16, ptr %3, align 1
  %7 = load i32, ptr %2, align 4
  %8 = shl i32 %7, 16
  store i32 %8, ptr %2, align 4
  br label %9

9:                                                ; preds = %6, %1
  %10 = load i32, ptr %2, align 4
  %11 = icmp ult i32 %10, 16777216
  br i1 %11, label %12, label %19

12:                                               ; preds = %9
  %13 = load i8, ptr %3, align 1
  %14 = zext i8 %13 to i32
  %15 = add nsw i32 %14, 8
  %16 = trunc i32 %15 to i8
  store i8 %16, ptr %3, align 1
  %17 = load i32, ptr %2, align 4
  %18 = shl i32 %17, 8
  store i32 %18, ptr %2, align 4
  br label %19

19:                                               ; preds = %12, %9
  %20 = load i32, ptr %2, align 4
  %21 = lshr i32 %20, 24
  %22 = zext i32 %21 to i64
  %23 = getelementptr inbounds [256 x i8], ptr @_ZN2cvL28softfloat_countLeadingZeros8E, i64 0, i64 %22
  %24 = load i8, ptr %23, align 1
  %25 = zext i8 %24 to i32
  %26 = load i8, ptr %3, align 1
  %27 = zext i8 %26 to i32
  %28 = add nsw i32 %27, %25
  %29 = trunc i32 %28 to i8
  store i8 %29, ptr %3, align 1
  %30 = load i8, ptr %3, align 1
  ret i8 %30
}

; Function Attrs: mustprogress nounwind uwtable
define linkonce_odr hidden noundef nonnull align 8 dereferenceable(8) ptr @_ZN2cv10softdoubleaSERKS0_(ptr noundef nonnull align 8 dereferenceable(8) %0, ptr noundef nonnull align 8 dereferenceable(8) %1) #1 comdat align 2 {
  %3 = alloca ptr, align 8
  %4 = alloca ptr, align 8
  store ptr %0, ptr %3, align 8
  store ptr %1, ptr %4, align 8
  %5 = load ptr, ptr %3, align 8
  %6 = load ptr, ptr %4, align 8
  %7 = icmp ne ptr %6, %5
  br i1 %7, label %8, label %13

8:                                                ; preds = %2
  %9 = load ptr, ptr %4, align 8
  %10 = getelementptr inbounds %"struct.cv::softdouble", ptr %9, i32 0, i32 0
  %11 = load i64, ptr %10, align 8
  %12 = getelementptr inbounds %"struct.cv::softdouble", ptr %5, i32 0, i32 0
  store i64 %11, ptr %12, align 8
  br label %13

13:                                               ; preds = %8, %2
  ret ptr %5
}

; Function Attrs: mustprogress uwtable
define internal void @_ZN2cvL11ui32_to_f64Ej(ptr dead_on_unwind noalias writable sret(%"struct.cv::softdouble") align 8 %0, i32 noundef %1) #0 {
  %3 = alloca ptr, align 8
  %4 = alloca i32, align 4
  %5 = alloca i64, align 8
  %6 = alloca i8, align 1
  store ptr %0, ptr %3, align 8
  store i32 %1, ptr %4, align 4
  %7 = load i32, ptr %4, align 4
  %8 = icmp ne i32 %7, 0
  br i1 %8, label %10, label %9

9:                                                ; preds = %2
  store i64 0, ptr %5, align 8
  br label %29

10:                                               ; preds = %2
  %11 = load i32, ptr %4, align 4
  %12 = call noundef zeroext i8 @_ZN2cvL29softfloat_countLeadingZeros32Ej(i32 noundef %11)
  %13 = zext i8 %12 to i32
  %14 = add nsw i32 %13, 21
  %15 = trunc i32 %14 to i8
  store i8 %15, ptr %6, align 1
  %16 = load i8, ptr %6, align 1
  %17 = sext i8 %16 to i32
  %18 = sub nsw i32 1074, %17
  %19 = sext i32 %18 to i64
  %20 = shl i64 %19, 52
  %21 = add i64 0, %20
  %22 = load i32, ptr %4, align 4
  %23 = zext i32 %22 to i64
  %24 = load i8, ptr %6, align 1
  %25 = sext i8 %24 to i32
  %26 = zext i32 %25 to i64
  %27 = shl i64 %23, %26
  %28 = add i64 %21, %27
  store i64 %28, ptr %5, align 8
  br label %29

29:                                               ; preds = %10, %9
  %30 = load i64, ptr %5, align 8
  call void @_ZN2cv10softdouble7fromRawEm(ptr dead_on_unwind writable sret(%"struct.cv::softdouble") align 8 %0, i64 noundef %30)
  ret void
}

; Function Attrs: mustprogress uwtable
define void @_ZN2cv10softdoubleC2Ej(ptr noundef nonnull align 8 dereferenceable(8) %0, i32 noundef %1) unnamed_addr #0 align 2 {
  %3 = alloca ptr, align 8
  %4 = alloca i32, align 4
  %5 = alloca %"struct.cv::softdouble", align 8
  store ptr %0, ptr %3, align 8
  store i32 %1, ptr %4, align 4
  %6 = load ptr, ptr %3, align 8
  %7 = load i32, ptr %4, align 4
  call void @_ZN2cvL11ui32_to_f64Ej(ptr dead_on_unwind writable sret(%"struct.cv::softdouble") align 8 %5, i32 noundef %7)
  %8 = call noundef nonnull align 8 dereferenceable(8) ptr @_ZN2cv10softdoubleaSERKS0_(ptr noundef nonnull align 8 dereferenceable(8) %6, ptr noundef nonnull align 8 dereferenceable(8) %5)
  ret void
}