; Function Attrs: mustprogress nofree norecurse nosync nounwind willreturn memory(argmem: write) uwtable
define void @_ZN2cv10softdoubleC2Ej(ptr nocapture noundef nonnull writeonly align 8 dereferenceable(8) %0, i32 noundef %1) unnamed_addr #0 align 2 {
  %.not.i = icmp eq i32 %1, 0
  br i1 %.not.i, label %_ZN2cvL11ui32_to_f64Ej.exit, label %3

3:                                                ; preds = %2
  %4 = icmp ult i32 %1, 65536
  %5 = shl nuw i32 %1, 16
  %spec.select.i.i = select i1 %4, i32 %5, i32 %1
  %spec.select12.i.i = select i1 %4, i8 16, i8 0
  %6 = icmp ult i32 %spec.select.i.i, 16777216
  %7 = or disjoint i8 %spec.select12.i.i, 8
  %8 = shl nuw i32 %spec.select.i.i, 8
  %.19.i.i = select i1 %6, i32 %8, i32 %spec.select.i.i
  %.1.i.i = select i1 %6, i8 %7, i8 %spec.select12.i.i
  %9 = lshr i32 %.19.i.i, 24
  %10 = zext nneg i32 %9 to i64
  %11 = getelementptr inbounds [256 x i8], ptr @_ZN2cvL28softfloat_countLeadingZeros8E, i64 0, i64 %10
  %12 = load i8, ptr %11, align 1, !noalias !43
  %13 = add nuw nsw i8 %.1.i.i, 21
  %14 = add i8 %13, %12
  %15 = sext i8 %14 to i32
  %16 = sub nsw i32 1074, %15
  %17 = zext nneg i32 %16 to i64
  %18 = shl nuw nsw i64 %17, 52
  %19 = zext i32 %1 to i64
  %20 = zext nneg i32 %15 to i64
  %21 = shl i64 %19, %20
  %22 = add i64 %18, %21
  br label %_ZN2cvL11ui32_to_f64Ej.exit

_ZN2cvL11ui32_to_f64Ej.exit:                      ; preds = %3, %2
  %.0.i = phi i64 [ %22, %3 ], [ 0, %2 ]
  store i64 %.0.i, ptr %0, align 8
  ret void
}